target datalayout = "e-m:e-p270:32:32-p271:32:32-p272:64:64-i64:64-i128:128-f80:128-n8:16:32:64-S128"
target triple = "x86_64-pc-linux-gnu"

%struct.enum_val_t = type { ptr, ptr, i32 }

@.str.286 = private unnamed_addr constant [5 x i8] c"DRDA\00", align 1
@.str.287 = private unnamed_addr constant [5 x i8] c"drda\00", align 1
@proto_drda = internal global i32 0, align 4
@.str.288 = private unnamed_addr constant [12 x i8] c"drda.opcode\00", align 1
@.str.289 = private unnamed_addr constant [12 x i8] c"DRDA opcode\00", align 1
@drda_opcode_table = internal global ptr null, align 8
@.str.290 = private unnamed_addr constant [10 x i8] c"desegment\00", align 1
@.str.291 = private unnamed_addr constant [56 x i8] c"Reassemble DRDA messages spanning multiple TCP segments\00", align 1
@.str.292 = private unnamed_addr constant [205 x i8] c"Whether the DRDA dissector should reassemble messages spanning multiple TCP segments. To use this option, you must also enable \22Allow subdissectors to reassemble TCP streams\22 in the TCP protocol settings.\00", align 1
@drda_desegment = internal global i8 1, align 1
@.str.293 = private unnamed_addr constant [6 x i8] c"sqlam\00", align 1
@.str.294 = private unnamed_addr constant [20 x i8] c"Default SQLAM Level\00", align 1
@.str.295 = private unnamed_addr constant [149 x i8] c"Default SQL Application Manager Level in the absence of EXSATRD command. (Currently the only difference in handling is between values < 7 and >= 7.)\00", align 1
@drda_default_sqlam = internal global i32 7, align 4
@.str.296 = private unnamed_addr constant [10 x i8] c"typdefnam\00", align 1
@.str.297 = private unnamed_addr constant [18 x i8] c"Default TYPDEFNAM\00", align 1
@.str.298 = private unnamed_addr constant [76 x i8] c"Data Type Definition to use in the absence of ACCRDB and ACCRDBRM commands.\00", align 1
@drda_default_typdefnam = internal global i32 3, align 4
@.str.299 = private unnamed_addr constant [9 x i8] c"ccsidsbc\00", align 1
@.str.300 = private unnamed_addr constant [45 x i8] c"Default Single-byte encoding for FD:OCA data\00", align 1
@.str.301 = private unnamed_addr constant [102 x i8] c"Single-byte encoding to use for FD:OCA character data in the absence of CCSIDSBC TYPDEFOVR parameter.\00", align 1
@drda_default_ccsidsbc = internal global i32 106, align 4
@ws_supported_mibenum_vals_character_sets_ev_array = external constant [0 x %struct.enum_val_t], align 8
@.str.302 = private unnamed_addr constant [9 x i8] c"ccsidmbc\00", align 1
@.str.303 = private unnamed_addr constant [44 x i8] c"Default Mixed-byte encoding for FD:OCA data\00", align 1
@.str.304 = private unnamed_addr constant [101 x i8] c"Mixed-byte encoding to use for FD:OCA character data in the absence of CCSIDMBC TYPDEFOVR parameter.\00", align 1
@drda_default_ccsidmbc = internal global i32 106, align 4
@drda_tcp_handle = internal global ptr null, align 8

; Function Attrs: null_pointer_is_valid sspstrong uwtable
define hidden void @proto_register_drda() #0 {
  %1 = alloca ptr, align 8
  %2 = alloca ptr, align 8
  call void @llvm.lifetime.start.p0(i64 8, ptr %1) #9
  call void @llvm.lifetime.start.p0(i64 8, ptr %2) #9
  %3 = call i32 @proto_register_protocol(ptr noundef @.str.286, ptr noundef @.str.286, ptr noundef @.str.287)
  store i32 %3, ptr @proto_drda, align 4
  %4 = load i32, ptr @proto_drda, align 4
  call void @proto_register_field_array(i32 noundef %4, ptr noundef @proto_register_drda.hf, i32 noundef 132)
  call void @proto_register_subtree_array(ptr noundef @proto_register_drda.ett, i32 noundef 14)
  %5 = load i32, ptr @proto_drda, align 4
  %6 = call ptr @expert_register_protocol(i32 noundef %5)
  store ptr %6, ptr %2, align 8
  %7 = load ptr, ptr %2, align 8
  call void @expert_register_field_array(ptr noundef %7, ptr noundef @proto_register_drda.ei, i32 noundef 2)
  %8 = load i32, ptr @proto_drda, align 4
  %9 = call ptr @register_dissector_table(ptr noundef @.str.288, ptr noundef @.str.289, i32 noundef %8, i32 noundef 5, i32 noundef 2)
  store ptr %9, ptr @drda_opcode_table, align 8
  %10 = load i32, ptr @proto_drda, align 4
  %11 = call ptr @prefs_register_protocol(i32 noundef %10, ptr noundef null)
  store ptr %11, ptr %1, align 8
  %12 = load ptr, ptr %1, align 8
  call void @prefs_register_bool_preference(ptr noundef %12, ptr noundef @.str.290, ptr noundef @.str.291, ptr noundef @.str.292, ptr noundef @drda_desegment)
  %13 = load ptr, ptr %1, align 8
  call void @prefs_register_uint_preference(ptr noundef %13, ptr noundef @.str.293, ptr noundef @.str.294, ptr noundef @.str.295, i32 noundef 10, ptr noundef @drda_default_sqlam)
  %14 = load ptr, ptr %1, align 8
  call void @prefs_register_enum_preference(ptr noundef %14, ptr noundef @.str.296, ptr noundef @.str.297, ptr noundef @.str.298, ptr noundef @drda_default_typdefnam, ptr noundef @typdefnam_vals, i1 noundef zeroext false)
  %15 = load ptr, ptr %1, align 8
  call void @prefs_register_enum_preference(ptr noundef %15, ptr noundef @.str.299, ptr noundef @.str.300, ptr noundef @.str.301, ptr noundef @drda_default_ccsidsbc, ptr noundef @ws_supported_mibenum_vals_character_sets_ev_array, i1 noundef zeroext false)
  %16 = load ptr, ptr %1, align 8
  call void @prefs_register_enum_preference(ptr noundef %16, ptr noundef @.str.302, ptr noundef @.str.303, ptr noundef @.str.304, ptr noundef @drda_default_ccsidmbc, ptr noundef @ws_supported_mibenum_vals_character_sets_ev_array, i1 noundef zeroext false)
  %17 = load i32, ptr @proto_drda, align 4
  %18 = call ptr @register_dissector(ptr noundef @.str.287, ptr noundef @dissect_drda_tcp, i32 noundef %17)
  store ptr %18, ptr @drda_tcp_handle, align 8
  call void @llvm.lifetime.end.p0(i64 8, ptr %2) #9
  call void @llvm.lifetime.end.p0(i64 8, ptr %1) #9
  ret void
}