; Function Attrs: null_pointer_is_valid sspstrong uwtable
define hidden void @proto_register_drda() local_unnamed_addr #0 {
  %1 = tail call i32 @proto_register_protocol(ptr noundef nonnull @.str.286, ptr noundef nonnull @.str.286, ptr noundef nonnull @.str.287)
  store i32 %1, ptr @proto_drda, align 4
  tail call void @proto_register_field_array(i32 noundef %1, ptr noundef nonnull @proto_register_drda.hf, i32 noundef 132)
  tail call void @proto_register_subtree_array(ptr noundef nonnull @proto_register_drda.ett, i32 noundef 14)
  %2 = load i32, ptr @proto_drda, align 4
  %3 = tail call ptr @expert_register_protocol(i32 noundef %2)
  tail call void @expert_register_field_array(ptr noundef %3, ptr noundef nonnull @proto_register_drda.ei, i32 noundef 2)
  %4 = load i32, ptr @proto_drda, align 4
  %5 = tail call ptr @register_dissector_table(ptr noundef nonnull @.str.288, ptr noundef nonnull @.str.289, i32 noundef %4, i32 noundef 5, i32 noundef 2)
  store ptr %5, ptr @drda_opcode_table, align 8
  %6 = load i32, ptr @proto_drda, align 4
  %7 = tail call ptr @prefs_register_protocol(i32 noundef %6, ptr noundef null)
  tail call void @prefs_register_bool_preference(ptr noundef %7, ptr noundef nonnull @.str.290, ptr noundef nonnull @.str.291, ptr noundef nonnull @.str.292, ptr noundef nonnull @drda_desegment)
  tail call void @prefs_register_uint_preference(ptr noundef %7, ptr noundef nonnull @.str.293, ptr noundef nonnull @.str.294, ptr noundef nonnull @.str.295, i32 noundef 10, ptr noundef nonnull @drda_default_sqlam)
  tail call void @prefs_register_enum_preference(ptr noundef %7, ptr noundef nonnull @.str.296, ptr noundef nonnull @.str.297, ptr noundef nonnull @.str.298, ptr noundef nonnull @drda_default_typdefnam, ptr noundef nonnull @typdefnam_vals, i1 noundef zeroext false)
  tail call void @prefs_register_enum_preference(ptr noundef %7, ptr noundef nonnull @.str.299, ptr noundef nonnull @.str.300, ptr noundef nonnull @.str.301, ptr noundef nonnull @drda_default_ccsidsbc, ptr noundef nonnull @ws_supported_mibenum_vals_character_sets_ev_array, i1 noundef zeroext false)
  tail call void @prefs_register_enum_preference(ptr noundef %7, ptr noundef nonnull @.str.302, ptr noundef nonnull @.str.303, ptr noundef nonnull @.str.304, ptr noundef nonnull @drda_default_ccsidmbc, ptr noundef nonnull @ws_supported_mibenum_vals_character_sets_ev_array, i1 noundef zeroext false)
  %8 = load i32, ptr @proto_drda, align 4
  %9 = tail call ptr @register_dissector(ptr noundef nonnull @.str.287, ptr noundef nonnull @dissect_drda_tcp, i32 noundef %8)
  store ptr %9, ptr @drda_tcp_handle, align 8
  ret void
}